; Function Attrs: nounwind uwtable
define ptr @l_Array_mapMUnsafe_map___at___aux__Init__NotationExtra______macroRules__term_x25_x5b___x7c___x5d__1___spec__2___boxed(ptr noundef %0, ptr noundef %1, ptr noundef %2) local_unnamed_addr #0 {
  %4 = getelementptr i8, ptr %0, i64 8
  %.val10 = load i64, ptr %4, align 8, !tbaa !13
  %5 = ptrtoint ptr %0 to i64
  %6 = and i64 %5, 1
  %.not = icmp eq i64 %6, 0
  br i1 %.not, label %7, label %lean_dec.exit7

7:                                                ; preds = %3
  %8 = load i32, ptr %0, align 4, !tbaa !5
  %9 = icmp sgt i32 %8, 1
  br i1 %9, label %10, label %12, !prof !10

10:                                               ; preds = %7
  %11 = add nsw i32 %8, -1
  store i32 %11, ptr %0, align 4, !tbaa !5
  br label %lean_dec.exit7

12:                                               ; preds = %7
  %.not.i = icmp eq i32 %8, 0
  br i1 %.not.i, label %lean_dec.exit7, label %13

13:                                               ; preds = %12
  tail call void @lean_dec_ref_cold(ptr noundef nonnull %0) #5
  br label %lean_dec.exit7

lean_dec.exit7:                                   ; preds = %13, %12, %10, %3
  %14 = getelementptr i8, ptr %1, i64 8
  %.val = load i64, ptr %14, align 8, !tbaa !13
  %15 = ptrtoint ptr %1 to i64
  %16 = and i64 %15, 1
  %.not11 = icmp eq i64 %16, 0
  br i1 %.not11, label %17, label %lean_dec.exit

17:                                               ; preds = %lean_dec.exit7
  %18 = load i32, ptr %1, align 4, !tbaa !5
  %19 = icmp sgt i32 %18, 1
  br i1 %19, label %20, label %22, !prof !10

20:                                               ; preds = %17
  %21 = add nsw i32 %18, -1
  store i32 %21, ptr %1, align 4, !tbaa !5
  br label %lean_dec.exit

22:                                               ; preds = %17
  %.not.i8 = icmp eq i32 %18, 0
  br i1 %.not.i8, label %lean_dec.exit, label %23

23:                                               ; preds = %22
  tail call void @lean_dec_ref_cold(ptr noundef nonnull %1) #5
  br label %lean_dec.exit

lean_dec.exit:                                    ; preds = %23, %22, %20, %lean_dec.exit7
  %24 = tail call ptr @l_Array_mapMUnsafe_map___at___aux__Init__NotationExtra______macroRules__term_x25_x5b___x7c___x5d__1___spec__2(i64 noundef %.val10, i64 noundef %.val, ptr noundef %2)
  ret ptr %24
}